target datalayout = "e-m:e-p270:32:32-p271:32:32-p272:64:64-i64:64-i128:128-f80:128-n8:16:32:64-S128"
target triple = "x86_64-unknown-linux-gnu"

%"class.std::vector.0" = type { %"struct.std::_Vector_base.1" }
%"struct.std::_Vector_base.1" = type { %"struct.std::_Vector_base<std::__cxx11::basic_string<char>, std::allocator<std::__cxx11::basic_string<char>>>::_Vector_impl" }
%"struct.std::_Vector_base<std::__cxx11::basic_string<char>, std::allocator<std::__cxx11::basic_string<char>>>::_Vector_impl" = type { %"struct.std::_Vector_base<std::__cxx11::basic_string<char>, std::allocator<std::__cxx11::basic_string<char>>>::_Vector_impl_data" }
%"struct.std::_Vector_base<std::__cxx11::basic_string<char>, std::allocator<std::__cxx11::basic_string<char>>>::_Vector_impl_data" = type { ptr, ptr, ptr }
%"class.facebook::velox::type::fbhive::HiveTypeParser" = type { %"class.facebook::velox::type::TypeParser", %"class.std::vector", %"class.folly::Range" }
%"class.facebook::velox::type::TypeParser" = type { ptr }
%"class.std::vector" = type { %"struct.std::_Vector_base" }
%"struct.std::_Vector_base" = type { %"struct.std::_Vector_base<std::unique_ptr<facebook::velox::type::fbhive::TokenMetadata>, std::allocator<std::unique_ptr<facebook::velox::type::fbhive::TokenMetadata>>>::_Vector_impl" }
%"struct.std::_Vector_base<std::unique_ptr<facebook::velox::type::fbhive::TokenMetadata>, std::allocator<std::unique_ptr<facebook::velox::type::fbhive::TokenMetadata>>>::_Vector_impl" = type { %"struct.std::_Vector_base<std::unique_ptr<facebook::velox::type::fbhive::TokenMetadata>, std::allocator<std::unique_ptr<facebook::velox::type::fbhive::TokenMetadata>>>::_Vector_impl_data" }
%"struct.std::_Vector_base<std::unique_ptr<facebook::velox::type::fbhive::TokenMetadata>, std::allocator<std::unique_ptr<facebook::velox::type::fbhive::TokenMetadata>>>::_Vector_impl_data" = type { ptr, ptr, ptr }
%"class.folly::Range" = type { ptr, ptr }
%"struct.facebook::velox::type::fbhive::Token" = type { ptr, %"class.folly::Range" }
%"struct.facebook::velox::type::fbhive::TokenMetadata" = type <{ i32, i8, [3 x i8], %"class.std::vector.0", i8, [7 x i8] }>
%"struct.facebook::velox::type::fbhive::TokenAndRemaining" = type { %"struct.facebook::velox::type::fbhive::Token", %"class.folly::Range" }

; Function Attrs: mustprogress nounwind uwtable
define noundef i32 @_ZNK8facebook5velox4type6fbhive5Token9tokenTypeEv(ptr noundef nonnull align 8 dereferenceable(24) %this) #1 align 2 {
entry:
  %this.addr = alloca ptr, align 8
  store ptr %this, ptr %this.addr, align 8
  %this1 = load ptr, ptr %this.addr, align 8
  %metadata = getelementptr inbounds %"struct.facebook::velox::type::fbhive::Token", ptr %this1, i32 0, i32 0
  %0 = load ptr, ptr %metadata, align 8
  %tokenType = getelementptr inbounds %"struct.facebook::velox::type::fbhive::TokenMetadata", ptr %0, i32 0, i32 0
  %1 = load i32, ptr %tokenType, align 8
  ret i32 %1
}

; Function Attrs: mustprogress uwtable
define void @_ZN8facebook5velox4type6fbhive14HiveTypeParser8eatTokenENS2_9TokenTypeEb(ptr noalias sret(%"struct.facebook::velox::type::fbhive::Token") align 8 %agg.result, ptr noundef nonnull align 8 dereferenceable(48) %this, i32 noundef %tokenType, i1 noundef zeroext %ignorePredefined) #0 align 2 {
entry:
  %this.addr = alloca ptr, align 8
  %tokenType.addr = alloca i32, align 4
  %ignorePredefined.addr = alloca i8, align 1
  %token = alloca %"struct.facebook::velox::type::fbhive::TokenAndRemaining", align 8
  %agg.tmp = alloca %"class.folly::Range", align 8
  store ptr %this, ptr %this.addr, align 8
  store i32 %tokenType, ptr %tokenType.addr, align 4
  %frombool = zext i1 %ignorePredefined to i8
  store i8 %frombool, ptr %ignorePredefined.addr, align 1
  %this1 = load ptr, ptr %this.addr, align 8
  %remaining_ = getelementptr inbounds %"class.facebook::velox::type::fbhive::HiveTypeParser", ptr %this1, i32 0, i32 2
  call void @llvm.memcpy.p0.p0.i64(ptr align 8 %agg.tmp, ptr align 8 %remaining_, i64 16, i1 false)
  %0 = load i8, ptr %ignorePredefined.addr, align 1
  %tobool = trunc i8 %0 to i1
  %1 = getelementptr inbounds { ptr, ptr }, ptr %agg.tmp, i32 0, i32 0
  %2 = load ptr, ptr %1, align 8
  %3 = getelementptr inbounds { ptr, ptr }, ptr %agg.tmp, i32 0, i32 1
  %4 = load ptr, ptr %3, align 8
  call void @_ZNK8facebook5velox4type6fbhive14HiveTypeParser9nextTokenEN5folly5RangeIPKcEEb(ptr sret(%"struct.facebook::velox::type::fbhive::TokenAndRemaining") align 8 %token, ptr noundef nonnull align 8 dereferenceable(48) %this1, ptr %2, ptr %4, i1 noundef zeroext %tobool)
  %call = call noundef i32 @_ZNK8facebook5velox4type6fbhive5Token9tokenTypeEv(ptr noundef nonnull align 8 dereferenceable(24) %token)
  %5 = load i32, ptr %tokenType.addr, align 4
  %cmp = icmp eq i32 %call, %5
  br i1 %cmp, label %if.then, label %if.end

if.then:                                          ; preds = %entry
  %remaining = getelementptr inbounds %"struct.facebook::velox::type::fbhive::TokenAndRemaining", ptr %token, i32 0, i32 1
  %remaining_2 = getelementptr inbounds %"class.facebook::velox::type::fbhive::HiveTypeParser", ptr %this1, i32 0, i32 2
  call void @llvm.memcpy.p0.p0.i64(ptr align 8 %remaining_2, ptr align 8 %remaining, i64 16, i1 false)
  call void @llvm.memcpy.p0.p0.i64(ptr align 8 %agg.result, ptr align 8 %token, i64 24, i1 false)
  ret void

if.end:                                           ; preds = %entry
  call void @llvm.trap()
  call void @llvm.trap()
  unreachable
}