; Function Attrs: mustprogress uwtable
define void @_ZN8facebook5velox4type6fbhive14HiveTypeParser8eatTokenENS2_9TokenTypeEb(ptr noalias nocapture writeonly sret(%"struct.facebook::velox::type::fbhive::Token") align 8 %agg.result, ptr nocapture noundef nonnull align 8 dereferenceable(48) %this, i32 noundef %tokenType, i1 noundef zeroext %ignorePredefined) local_unnamed_addr #0 align 2 {
entry:
  %token = alloca %"struct.facebook::velox::type::fbhive::TokenAndRemaining", align 8
  %remaining_ = getelementptr inbounds i8, ptr %this, i64 32
  %agg.tmp.sroa.0.0.copyload = load ptr, ptr %remaining_, align 8
  %agg.tmp.sroa.2.0.remaining_.sroa_idx = getelementptr inbounds i8, ptr %this, i64 40
  %agg.tmp.sroa.2.0.copyload = load ptr, ptr %agg.tmp.sroa.2.0.remaining_.sroa_idx, align 8
  call void @_ZNK8facebook5velox4type6fbhive14HiveTypeParser9nextTokenEN5folly5RangeIPKcEEb(ptr nonnull sret(%"struct.facebook::velox::type::fbhive::TokenAndRemaining") align 8 %token, ptr noundef nonnull align 8 dereferenceable(48) %this, ptr %agg.tmp.sroa.0.0.copyload, ptr %agg.tmp.sroa.2.0.copyload, i1 noundef zeroext %ignorePredefined)
  %0 = load ptr, ptr %token, align 8
  %1 = load i32, ptr %0, align 8
  %cmp = icmp eq i32 %1, %tokenType
  br i1 %cmp, label %if.then, label %if.end

if.then:                                          ; preds = %entry
  %remaining = getelementptr inbounds i8, ptr %token, i64 24
  call void @llvm.memcpy.p0.p0.i64(ptr noundef nonnull align 8 dereferenceable(16) %remaining_, ptr noundef nonnull align 8 dereferenceable(16) %remaining, i64 16, i1 false)
  call void @llvm.memcpy.p0.p0.i64(ptr noundef nonnull align 8 dereferenceable(24) %agg.result, ptr noundef nonnull align 8 dereferenceable(24) %token, i64 24, i1 false)
  ret void

if.end:                                           ; preds = %entry
  tail call void @llvm.trap()
  unreachable
}